; Function Attrs: mustprogress nofree norecurse nosync nounwind willreturn memory(none) uwtable
define hidden noundef signext i8 @lxb_encoding_encode_utf_8_length(i32 noundef %0) local_unnamed_addr #5 {
  %2 = icmp ult i32 %0, 128
  br i1 %2, label %9, label %3

3:                                                ; preds = %1
  %4 = icmp ult i32 %0, 2048
  br i1 %4, label %9, label %5

5:                                                ; preds = %3
  %6 = icmp ult i32 %0, 65536
  br i1 %6, label %9, label %7

7:                                                ; preds = %5
  %8 = icmp ult i32 %0, 1114112
  %. = select i1 %8, i8 4, i8 0
  br label %9

9:                                                ; preds = %7, %5, %3, %1
  %.0 = phi i8 [ 1, %1 ], [ 2, %3 ], [ 3, %5 ], [ %., %7 ]
  ret i8 %.0
}